; Function Attrs: mustprogress nofree norecurse nosync nounwind willreturn memory(argmem: read) uwtable
define dso_local noundef zeroext i1 @_ZNK4Luau8PositionleERKS0_(ptr nocapture noundef nonnull readonly align 4 dereferenceable(8) %0, ptr nocapture noundef nonnull readonly align 4 dereferenceable(8) %1) local_unnamed_addr #0 align 2 {
  %3 = getelementptr inbounds i8, ptr %0, i64 4
  %4 = load i32, ptr %3, align 4
  %5 = getelementptr inbounds i8, ptr %1, i64 4
  %6 = load i32, ptr %5, align 4
  %7 = icmp eq i32 %4, %6
  %8 = load i32, ptr %0, align 4
  %9 = load i32, ptr %1, align 4
  %10 = icmp eq i32 %8, %9
  %11 = select i1 %7, i1 %10, i1 false
  br i1 %11, label %15, label %12

12:                                               ; preds = %2
  %13 = icmp ult i32 %4, %6
  %14 = icmp ult i32 %8, %9
  %.0.i = select i1 %10, i1 %13, i1 %14
  br label %15

15:                                               ; preds = %12, %2
  %16 = phi i1 [ true, %2 ], [ %.0.i, %12 ]
  ret i1 %16
}